target datalayout = "e-m:e-p270:32:32-p271:32:32-p272:64:64-i64:64-i128:128-f80:128-n8:16:32:64-S128"
target triple = "x86_64-pc-linux-gnu"

%struct.AVTimecode = type { i32, i32, %struct.AVRational, i32 }
%struct.AVRational = type { i32, i32 }

@.str = private unnamed_addr constant [23 x i8] c"%s%02d:%02d:%02d%c%0*d\00", align 1
@.str.1 = private unnamed_addr constant [2 x i8] c"-\00", align 1
@.str.2 = private unnamed_addr constant [1 x i8] zeroinitializer, align 1

; Function Attrs: nounwind uwtable
define i32 @av_timecode_adjust_ntsc_framenum2(i32 noundef %0, i32 noundef %1) #0 {
  %3 = alloca i32, align 4
  %4 = alloca i32, align 4
  %5 = alloca i32, align 4
  %6 = alloca i32, align 4
  %7 = alloca i32, align 4
  %8 = alloca i32, align 4
  %9 = alloca i32, align 4
  %10 = alloca i32, align 4
  store i32 %0, ptr %4, align 4, !tbaa !4
  store i32 %1, ptr %5, align 4, !tbaa !4
  call void @llvm.lifetime.start.p0(i64 4, ptr %6) #8
  store i32 0, ptr %6, align 4, !tbaa !4
  call void @llvm.lifetime.start.p0(i64 4, ptr %7) #8
  call void @llvm.lifetime.start.p0(i64 4, ptr %8) #8
  call void @llvm.lifetime.start.p0(i64 4, ptr %9) #8
  %11 = load i32, ptr %5, align 4, !tbaa !4
  %12 = icmp ne i32 %11, 0
  br i1 %12, label %13, label %24

13:                                               ; preds = %2
  %14 = load i32, ptr %5, align 4, !tbaa !4
  %15 = srem i32 %14, 30
  %16 = icmp eq i32 %15, 0
  br i1 %16, label %17, label %24

17:                                               ; preds = %13
  %18 = load i32, ptr %5, align 4, !tbaa !4
  %19 = sdiv i32 %18, 30
  %20 = mul nsw i32 %19, 2
  store i32 %20, ptr %6, align 4, !tbaa !4
  %21 = load i32, ptr %5, align 4, !tbaa !4
  %22 = sdiv i32 %21, 30
  %23 = mul nsw i32 %22, 17982
  store i32 %23, ptr %9, align 4, !tbaa !4
  br label %26

24:                                               ; preds = %13, %2
  %25 = load i32, ptr %4, align 4, !tbaa !4
  store i32 %25, ptr %3, align 4
  store i32 1, ptr %10, align 4
  br label %48

26:                                               ; preds = %17
  %27 = load i32, ptr %4, align 4, !tbaa !4
  %28 = load i32, ptr %9, align 4, !tbaa !4
  %29 = sdiv i32 %27, %28
  store i32 %29, ptr %7, align 4, !tbaa !4
  %30 = load i32, ptr %4, align 4, !tbaa !4
  %31 = load i32, ptr %9, align 4, !tbaa !4
  %32 = srem i32 %30, %31
  store i32 %32, ptr %8, align 4, !tbaa !4
  %33 = load i32, ptr %4, align 4, !tbaa !4
  %34 = load i32, ptr %6, align 4, !tbaa !4
  %35 = mul i32 9, %34
  %36 = load i32, ptr %7, align 4, !tbaa !4
  %37 = mul i32 %35, %36
  %38 = add i32 %33, %37
  %39 = load i32, ptr %6, align 4, !tbaa !4
  %40 = load i32, ptr %8, align 4, !tbaa !4
  %41 = load i32, ptr %6, align 4, !tbaa !4
  %42 = sub nsw i32 %40, %41
  %43 = load i32, ptr %9, align 4, !tbaa !4
  %44 = sdiv i32 %43, 10
  %45 = sdiv i32 %42, %44
  %46 = mul nsw i32 %39, %45
  %47 = add i32 %38, %46
  store i32 %47, ptr %3, align 4
  store i32 1, ptr %10, align 4
  br label %48

48:                                               ; preds = %26, %24
  call void @llvm.lifetime.end.p0(i64 4, ptr %9) #8
  call void @llvm.lifetime.end.p0(i64 4, ptr %8) #8
  call void @llvm.lifetime.end.p0(i64 4, ptr %7) #8
  call void @llvm.lifetime.end.p0(i64 4, ptr %6) #8
  %49 = load i32, ptr %3, align 4
  ret i32 %49
}

; Function Attrs: nounwind uwtable
define ptr @av_timecode_make_string(ptr noundef %0, ptr noundef %1, i32 noundef %2) #0 {
  %4 = alloca ptr, align 8
  %5 = alloca ptr, align 8
  %6 = alloca i32, align 4
  %7 = alloca i32, align 4
  %8 = alloca i32, align 4
  %9 = alloca i32, align 4
  %10 = alloca i32, align 4
  %11 = alloca i32, align 4
  %12 = alloca i32, align 4
  %13 = alloca i32, align 4
  %14 = alloca i32, align 4
  %15 = alloca i64, align 8
  store ptr %0, ptr %4, align 8, !tbaa !8
  store ptr %1, ptr %5, align 8, !tbaa !19
  store i32 %2, ptr %6, align 4, !tbaa !4
  call void @llvm.lifetime.start.p0(i64 4, ptr %7) #8
  %16 = load ptr, ptr %4, align 8, !tbaa !8
  %17 = getelementptr inbounds nuw %struct.AVTimecode, ptr %16, i32 0, i32 3
  %18 = load i32, ptr %17, align 4, !tbaa !10
  store i32 %18, ptr %7, align 4, !tbaa !4
  call void @llvm.lifetime.start.p0(i64 4, ptr %8) #8
  %19 = load ptr, ptr %4, align 8, !tbaa !8
  %20 = getelementptr inbounds nuw %struct.AVTimecode, ptr %19, i32 0, i32 1
  %21 = load i32, ptr %20, align 4, !tbaa !13
  %22 = and i32 %21, 1
  store i32 %22, ptr %8, align 4, !tbaa !4
  call void @llvm.lifetime.start.p0(i64 4, ptr %9) #8
  call void @llvm.lifetime.start.p0(i64 4, ptr %10) #8
  call void @llvm.lifetime.start.p0(i64 4, ptr %11) #8
  call void @llvm.lifetime.start.p0(i64 4, ptr %12) #8
  call void @llvm.lifetime.start.p0(i64 4, ptr %13) #8
  call void @llvm.lifetime.start.p0(i64 4, ptr %14) #8
  store i32 0, ptr %14, align 4, !tbaa !4
  call void @llvm.lifetime.start.p0(i64 8, ptr %15) #8
  %23 = load i32, ptr %6, align 4, !tbaa !4
  %24 = sext i32 %23 to i64
  store i64 %24, ptr %15, align 8, !tbaa !17
  %25 = load ptr, ptr %4, align 8, !tbaa !8
  %26 = getelementptr inbounds nuw %struct.AVTimecode, ptr %25, i32 0, i32 0
  %27 = load i32, ptr %26, align 4, !tbaa !14
  %28 = sext i32 %27 to i64
  %29 = load i64, ptr %15, align 8, !tbaa !17
  %30 = add nsw i64 %29, %28
  store i64 %30, ptr %15, align 8, !tbaa !17
  %31 = load i32, ptr %8, align 4, !tbaa !4
  %32 = icmp ne i32 %31, 0
  br i1 %32, label %33, label %39

33:                                               ; preds = %3
  %34 = load i64, ptr %15, align 8, !tbaa !17
  %35 = trunc i64 %34 to i32
  %36 = load i32, ptr %7, align 4, !tbaa !4
  %37 = call i32 @av_timecode_adjust_ntsc_framenum2(i32 noundef %35, i32 noundef %36)
  %38 = sext i32 %37 to i64
  store i64 %38, ptr %15, align 8, !tbaa !17
  br label %39

39:                                               ; preds = %33, %3
  %40 = load i64, ptr %15, align 8, !tbaa !17
  %41 = icmp slt i64 %40, 0
  br i1 %41, label %42, label %49

42:                                               ; preds = %39
  %43 = load i64, ptr %15, align 8, !tbaa !17
  %44 = sub nsw i64 0, %43
  store i64 %44, ptr %15, align 8, !tbaa !17
  %45 = load ptr, ptr %4, align 8, !tbaa !8
  %46 = getelementptr inbounds nuw %struct.AVTimecode, ptr %45, i32 0, i32 1
  %47 = load i32, ptr %46, align 4, !tbaa !13
  %48 = and i32 %47, 4
  store i32 %48, ptr %14, align 4, !tbaa !4
  br label %49

49:                                               ; preds = %42, %39
  %50 = load i64, ptr %15, align 8, !tbaa !17
  %51 = load i32, ptr %7, align 4, !tbaa !4
  %52 = sext i32 %51 to i64
  %53 = srem i64 %50, %52
  %54 = trunc i64 %53 to i32
  store i32 %54, ptr %12, align 4, !tbaa !4
  %55 = load i64, ptr %15, align 8, !tbaa !17
  %56 = load i32, ptr %7, align 4, !tbaa !4
  %57 = sext i32 %56 to i64
  %58 = sdiv i64 %55, %57
  %59 = srem i64 %58, 60
  %60 = trunc i64 %59 to i32
  store i32 %60, ptr %11, align 4, !tbaa !4
  %61 = load i64, ptr %15, align 8, !tbaa !17
  %62 = load i32, ptr %7, align 4, !tbaa !4
  %63 = sext i32 %62 to i64
  %64 = mul nsw i64 %63, 60
  %65 = sdiv i64 %61, %64
  %66 = srem i64 %65, 60
  %67 = trunc i64 %66 to i32
  store i32 %67, ptr %10, align 4, !tbaa !4
  %68 = load i64, ptr %15, align 8, !tbaa !17
  %69 = load i32, ptr %7, align 4, !tbaa !4
  %70 = sext i32 %69 to i64
  %71 = mul nsw i64 %70, 3600
  %72 = sdiv i64 %68, %71
  %73 = trunc i64 %72 to i32
  store i32 %73, ptr %9, align 4, !tbaa !4
  %74 = load ptr, ptr %4, align 8, !tbaa !8
  %75 = getelementptr inbounds nuw %struct.AVTimecode, ptr %74, i32 0, i32 1
  %76 = load i32, ptr %75, align 4, !tbaa !13
  %77 = and i32 %76, 2
  %78 = icmp ne i32 %77, 0
  br i1 %78, label %79, label %82

79:                                               ; preds = %49
  %80 = load i32, ptr %9, align 4, !tbaa !4
  %81 = srem i32 %80, 24
  store i32 %81, ptr %9, align 4, !tbaa !4
  br label %82

82:                                               ; preds = %79, %49
  %83 = load i32, ptr %7, align 4, !tbaa !4
  %84 = icmp sgt i32 %83, 10000
  br i1 %84, label %85, label %86

85:                                               ; preds = %82
  br label %102

86:                                               ; preds = %82
  %87 = load i32, ptr %7, align 4, !tbaa !4
  %88 = icmp sgt i32 %87, 1000
  br i1 %88, label %89, label %90

89:                                               ; preds = %86
  br label %100

90:                                               ; preds = %86
  %91 = load i32, ptr %7, align 4, !tbaa !4
  %92 = icmp sgt i32 %91, 100
  br i1 %92, label %93, label %94

93:                                               ; preds = %90
  br label %98

94:                                               ; preds = %90
  %95 = load i32, ptr %7, align 4, !tbaa !4
  %96 = icmp sgt i32 %95, 10
  %97 = select i1 %96, i32 2, i32 1
  br label %98

98:                                               ; preds = %94, %93
  %99 = phi i32 [ 3, %93 ], [ %97, %94 ]
  br label %100

100:                                              ; preds = %98, %89
  %101 = phi i32 [ 4, %89 ], [ %99, %98 ]
  br label %102

102:                                              ; preds = %100, %85
  %103 = phi i32 [ 5, %85 ], [ %101, %100 ]
  store i32 %103, ptr %13, align 4, !tbaa !4
  %104 = load ptr, ptr %5, align 8, !tbaa !19
  %105 = load i32, ptr %14, align 4, !tbaa !4
  %106 = icmp ne i32 %105, 0
  %107 = select i1 %106, ptr @.str.1, ptr @.str.2
  %108 = load i32, ptr %9, align 4, !tbaa !4
  %109 = load i32, ptr %10, align 4, !tbaa !4
  %110 = load i32, ptr %11, align 4, !tbaa !4
  %111 = load i32, ptr %8, align 4, !tbaa !4
  %112 = icmp ne i32 %111, 0
  %113 = select i1 %112, i32 59, i32 58
  %114 = load i32, ptr %13, align 4, !tbaa !4
  %115 = load i32, ptr %12, align 4, !tbaa !4
  %116 = call i32 (ptr, i64, ptr, ...) @snprintf(ptr noundef %104, i64 noundef 23, ptr noundef @.str, ptr noundef %107, i32 noundef %108, i32 noundef %109, i32 noundef %110, i32 noundef %113, i32 noundef %114, i32 noundef %115) #8
  %117 = load ptr, ptr %5, align 8, !tbaa !19
  call void @llvm.lifetime.end.p0(i64 8, ptr %15) #8
  call void @llvm.lifetime.end.p0(i64 4, ptr %14) #8
  call void @llvm.lifetime.end.p0(i64 4, ptr %13) #8
  call void @llvm.lifetime.end.p0(i64 4, ptr %12) #8
  call void @llvm.lifetime.end.p0(i64 4, ptr %11) #8
  call void @llvm.lifetime.end.p0(i64 4, ptr %10) #8
  call void @llvm.lifetime.end.p0(i64 4, ptr %9) #8
  call void @llvm.lifetime.end.p0(i64 4, ptr %8) #8
  call void @llvm.lifetime.end.p0(i64 4, ptr %7) #8
  ret ptr %117
}