; Function Attrs: nofree nounwind uwtable
define noundef ptr @av_timecode_make_string(ptr noundef readonly captures(none) %0, ptr noundef returned writeonly captures(ret: address, provenance) %1, i32 noundef %2) local_unnamed_addr #3 {
  %4 = getelementptr inbounds nuw i8, ptr %0, i64 16
  %5 = load i32, ptr %4, align 4, !tbaa !4
  %6 = getelementptr inbounds nuw i8, ptr %0, i64 4
  %7 = load i32, ptr %6, align 4, !tbaa !10
  %8 = and i32 %7, 1
  %9 = sext i32 %2 to i64
  %10 = load i32, ptr %0, align 4, !tbaa !11
  %11 = sext i32 %10 to i64
  %12 = add nsw i64 %11, %9
  %.not = icmp eq i32 %8, 0
  br i1 %.not, label %32, label %13

13:                                               ; preds = %3
  %14 = trunc i64 %12 to i32
  %.not.i = icmp ne i32 %5, 0
  %15 = srem i32 %5, 30
  %16 = sdiv i32 %5, 30
  %17 = icmp eq i32 %15, 0
  %or.cond.i = and i1 %.not.i, %17
  br i1 %or.cond.i, label %18, label %av_timecode_adjust_ntsc_framenum2.exit

18:                                               ; preds = %13
  %19 = shl nsw i32 %16, 1
  %20 = mul nsw i32 %16, 17982
  %21 = sdiv i32 %14, %20
  %22 = srem i32 %14, %20
  %23 = mul nsw i32 %16, 18
  %24 = mul i32 %23, %21
  %25 = add i32 %24, %14
  %26 = sub nsw i32 %22, %19
  %27 = sdiv i32 %20, 10
  %28 = sdiv i32 %26, %27
  %29 = mul nsw i32 %28, %19
  %30 = add i32 %25, %29
  br label %av_timecode_adjust_ntsc_framenum2.exit

av_timecode_adjust_ntsc_framenum2.exit:           ; preds = %13, %18
  %.0.i = phi i32 [ %30, %18 ], [ %14, %13 ]
  %31 = sext i32 %.0.i to i64
  br label %32

32:                                               ; preds = %av_timecode_adjust_ntsc_framenum2.exit, %3
  %.0 = phi i64 [ %31, %av_timecode_adjust_ntsc_framenum2.exit ], [ %12, %3 ]
  %33 = icmp sgt i32 %5, 10000
  br i1 %33, label %41, label %34

34:                                               ; preds = %32
  %35 = icmp sgt i32 %5, 1000
  br i1 %35, label %41, label %36

36:                                               ; preds = %34
  %37 = icmp sgt i32 %5, 100
  %38 = icmp sgt i32 %5, 10
  %39 = select i1 %38, i32 2, i32 1
  %40 = select i1 %37, i32 3, i32 %39
  br label %41

41:                                               ; preds = %36, %34, %32
  %42 = phi i32 [ 5, %32 ], [ %40, %36 ], [ 4, %34 ]
  %43 = and i32 %7, 2
  %.not36 = icmp eq i32 %43, 0
  %.1 = tail call i64 @llvm.abs.i64(i64 %.0, i1 true)
  %44 = sext i32 %5 to i64
  %45 = mul nsw i64 %44, 3600
  %46 = sdiv i64 %.1, %45
  %47 = trunc i64 %46 to i32
  %48 = srem i32 %47, 24
  %.034 = select i1 %.not36, i32 %47, i32 %48
  %49 = icmp slt i64 %.0, 0
  %50 = and i32 %7, 4
  %51 = icmp eq i32 %50, 0
  %52 = select i1 %51, ptr @.str.2, ptr @.str.1
  %.033 = select i1 %49, ptr %52, ptr @.str.2
  %53 = mul nsw i64 %44, 60
  %54 = sdiv i64 %.1, %53
  %55 = srem i64 %54, 60
  %56 = trunc nsw i64 %55 to i32
  %57 = sdiv i64 %.1, %44
  %58 = srem i64 %57, 60
  %59 = trunc nsw i64 %58 to i32
  %60 = srem i64 %.1, %44
  %61 = trunc nuw nsw i64 %60 to i32
  %62 = or disjoint i32 %8, 58
  %63 = tail call i32 (ptr, i64, ptr, ...) @snprintf(ptr noundef nonnull dereferenceable(1) %1, i64 noundef 23, ptr noundef nonnull @.str, ptr noundef nonnull %.033, i32 noundef %.034, i32 noundef %56, i32 noundef %59, i32 noundef %62, i32 noundef %42, i32 noundef %61) #10
  ret ptr %1
}